; Function Attrs: mustprogress uwtable
define void @_ZN4base24GlobalHistogramAllocator3SetESt10unique_ptrIS0_St14default_deleteIS0_EE(ptr noundef captures(none) %0) local_unnamed_addr #0 align 2 personality ptr @__gxx_personality_v0 {
  %2 = alloca %"class.logging::LogMessage", align 8
  %3 = load ptr, ptr @_ZN4base12_GLOBAL__N_111g_allocatorE, align 8, !tbaa !116
  %.not.not = icmp eq ptr %3, null
  br i1 %.not.not, label %.critedge3, label %.critedge

.critedge:                                        ; preds = %1
  call void @llvm.lifetime.start.p0(i64 408, ptr nonnull %2) #21
  call void @_ZN7logging10LogMessageC1EPKciS2_(ptr noundef nonnull align 8 dereferenceable(404) %2, ptr noundef nonnull @.str.1, i32 noundef 763, ptr noundef nonnull @.str.2)
  call void @_ZN7logging10LogMessageD1Ev(ptr noundef nonnull align 8 dereferenceable(404) %2) #21
  call void @llvm.lifetime.end.p0(i64 408, ptr nonnull %2) #21
  br label %.critedge3

.critedge3:                                       ; preds = %1, %.critedge
  %4 = load ptr, ptr %0, align 8, !tbaa !116
  store ptr null, ptr %0, align 8, !tbaa !116
  store ptr %4, ptr @_ZN4base12_GLOBAL__N_111g_allocatorE, align 8, !tbaa !116
  %5 = call noundef i64 @_ZN4base18StatisticsRecorder17GetHistogramCountEv()
  ret void
}